; Function Attrs: nounwind uwtable
define ptr @l_Array_setD___rarg(ptr noundef %0, ptr noundef %1, ptr noundef %2) local_unnamed_addr #0 {
  %4 = getelementptr i8, ptr %0, i64 8
  %.val = load i64, ptr %4, align 8, !tbaa !12
  %5 = shl i64 %.val, 1
  %6 = or disjoint i64 %5, 1
  %7 = inttoptr i64 %6 to ptr
  %8 = ptrtoint ptr %1 to i64
  %9 = and i64 %8, 1
  %.not = icmp eq i64 %9, 0
  br i1 %.not, label %lean_dec.exit11, label %10, !prof !14

10:                                               ; preds = %3
  %11 = icmp ult ptr %1, %7
  br i1 %11, label %23, label %13

lean_dec.exit11:                                  ; preds = %3
  %12 = tail call zeroext i1 @lean_nat_big_lt(ptr noundef %1, ptr noundef nonnull %7) #4
  br i1 %12, label %23, label %13

13:                                               ; preds = %10, %lean_dec.exit11
  %14 = ptrtoint ptr %2 to i64
  %15 = and i64 %14, 1
  %.not14 = icmp eq i64 %15, 0
  br i1 %.not14, label %16, label %lean_dec.exit

16:                                               ; preds = %13
  %17 = load i32, ptr %2, align 4, !tbaa !4
  %18 = icmp sgt i32 %17, 1
  br i1 %18, label %19, label %21, !prof !11

19:                                               ; preds = %16
  %20 = add nsw i32 %17, -1
  store i32 %20, ptr %2, align 4, !tbaa !4
  br label %lean_dec.exit

21:                                               ; preds = %16
  %.not.i12 = icmp eq i32 %17, 0
  br i1 %.not.i12, label %lean_dec.exit, label %22

22:                                               ; preds = %21
  tail call void @lean_dec_ref_cold(ptr noundef nonnull %2) #4
  br label %lean_dec.exit

23:                                               ; preds = %10, %lean_dec.exit11
  %24 = lshr i64 %8, 1
  %.val.i.i.i = load i32, ptr %0, align 4, !tbaa !4
  %25 = icmp eq i32 %.val.i.i.i, 1
  br i1 %25, label %lean_ensure_exclusive_array.exit.i.i, label %26

26:                                               ; preds = %23
  %27 = tail call ptr @lean_copy_expand_array(ptr noundef nonnull %0, i1 noundef zeroext false) #4
  br label %lean_ensure_exclusive_array.exit.i.i

lean_ensure_exclusive_array.exit.i.i:             ; preds = %26, %23
  %.0.i.i.i = phi ptr [ %27, %26 ], [ %0, %23 ]
  %28 = getelementptr inbounds nuw i8, ptr %.0.i.i.i, i64 24
  %29 = getelementptr inbounds nuw ptr, ptr %28, i64 %24
  %30 = load ptr, ptr %29, align 8, !tbaa !9
  %31 = ptrtoint ptr %30 to i64
  %32 = and i64 %31, 1
  %.not.i.i = icmp eq i64 %32, 0
  br i1 %.not.i.i, label %33, label %lean_array_fset.exit

33:                                               ; preds = %lean_ensure_exclusive_array.exit.i.i
  %34 = load i32, ptr %30, align 4, !tbaa !4
  %35 = icmp sgt i32 %34, 1
  br i1 %35, label %36, label %38, !prof !11

36:                                               ; preds = %33
  %37 = add nsw i32 %34, -1
  store i32 %37, ptr %30, align 4, !tbaa !4
  br label %lean_array_fset.exit

38:                                               ; preds = %33
  %.not.i.i.i = icmp eq i32 %34, 0
  br i1 %.not.i.i.i, label %lean_array_fset.exit, label %39

39:                                               ; preds = %38
  tail call void @lean_dec_ref_cold(ptr noundef nonnull %30) #4
  br label %lean_array_fset.exit

lean_array_fset.exit:                             ; preds = %lean_ensure_exclusive_array.exit.i.i, %36, %38, %39
  store ptr %2, ptr %29, align 8, !tbaa !9
  br label %lean_dec.exit

lean_dec.exit:                                    ; preds = %13, %19, %21, %22, %lean_array_fset.exit
  %.0 = phi ptr [ %.0.i.i.i, %lean_array_fset.exit ], [ %0, %22 ], [ %0, %21 ], [ %0, %19 ], [ %0, %13 ]
  ret ptr %.0
}